; Function Attrs: nounwind uwtable
define internal noundef nonnull ptr @test_atomic_and_or_uint16(ptr readnone captures(none) %0, ptr readnone captures(none) %1) #0 {
  %3 = alloca i16, align 2
  call void @llvm.lifetime.start.p0(i64 2, ptr nonnull %3) #6
  store i16 0, ptr %3, align 2, !tbaa !6
  %4 = atomicrmw or ptr %3, i16 3 seq_cst, align 2
  %5 = icmp eq i16 %4, 0
  br i1 %5, label %7, label %6

6:                                                ; preds = %2
  call void @__assert_fail(ptr noundef nonnull @.str.345, ptr noundef nonnull @.str.65, i32 noundef 121, ptr noundef nonnull @__PRETTY_FUNCTION__.test_atomic_and_or_uint16) #7
  unreachable

7:                                                ; preds = %2
  %8 = load i16, ptr %3, align 2, !tbaa !6
  %9 = icmp eq i16 %8, 3
  br i1 %9, label %11, label %10

10:                                               ; preds = %7
  call void @__assert_fail(ptr noundef nonnull @.str.346, ptr noundef nonnull @.str.65, i32 noundef 121, ptr noundef nonnull @__PRETTY_FUNCTION__.test_atomic_and_or_uint16) #7
  unreachable

11:                                               ; preds = %7
  %12 = atomicrmw and ptr %3, i16 1 seq_cst, align 2
  %13 = icmp eq i16 %12, 3
  br i1 %13, label %15, label %14

14:                                               ; preds = %11
  call void @__assert_fail(ptr noundef nonnull @.str.347, ptr noundef nonnull @.str.65, i32 noundef 121, ptr noundef nonnull @__PRETTY_FUNCTION__.test_atomic_and_or_uint16) #7
  unreachable

15:                                               ; preds = %11
  %16 = load i16, ptr %3, align 2, !tbaa !6
  %17 = icmp eq i16 %16, 1
  br i1 %17, label %19, label %18

18:                                               ; preds = %15
  call void @__assert_fail(ptr noundef nonnull @.str.222, ptr noundef nonnull @.str.65, i32 noundef 121, ptr noundef nonnull @__PRETTY_FUNCTION__.test_atomic_and_or_uint16) #7
  unreachable

19:                                               ; preds = %15
  call void @llvm.lifetime.end.p0(i64 2, ptr nonnull %3) #6
  ret ptr @_Py_NoneStruct
}